; Function Attrs: mustprogress nounwind uwtable
define dso_local noundef zeroext i1 @_ZN5clang4Sema23RequireCompleteExprTypeEPNS_4ExprENS0_16CompleteTypeKindERNS0_13TypeDiagnoserE(ptr noundef nonnull align 8 dereferenceable(17560) %0, ptr noundef nonnull %1, i32 noundef %2, ptr noundef nonnull align 8 dereferenceable(8) %3) local_unnamed_addr #0 align 2 {
  %5 = tail call i32 @_ZNK5clang4Expr10getExprLocEv(ptr noundef nonnull align 8 dereferenceable(16) %1) #23
  %6 = getelementptr inbounds nuw i8, ptr %1, i64 8
  %.sroa.0.0.copyload.i.i = load i64, ptr %6, align 8
  %7 = and i64 %.sroa.0.0.copyload.i.i, -16
  %8 = inttoptr i64 %7 to ptr
  %9 = load ptr, ptr %8, align 16
  %10 = getelementptr inbounds nuw i8, ptr %9, i64 8
  %.sroa.0.0.copyload.i.i.i.i.i = load i64, ptr %10, align 8
  %11 = and i64 %.sroa.0.0.copyload.i.i.i.i.i, -16
  %12 = inttoptr i64 %11 to ptr
  %13 = load ptr, ptr %12, align 16
  %14 = getelementptr inbounds nuw i8, ptr %13, i64 16
  %15 = load i8, ptr %14, align 16
  %16 = icmp eq i8 %15, 5
  br i1 %16, label %17, label %_ZN5clang4Sema16getCompletedTypeEPNS_4ExprE.exit

17:                                               ; preds = %4
  tail call void @_ZN5clang4Sema22completeExprArrayBoundEPNS_4ExprE(ptr noundef nonnull align 8 dereferenceable(17560) %0, ptr noundef nonnull %1)
  %.sroa.0.0.copyload.i4.pre.i = load i64, ptr %6, align 8
  br label %_ZN5clang4Sema16getCompletedTypeEPNS_4ExprE.exit

_ZN5clang4Sema16getCompletedTypeEPNS_4ExprE.exit: ; preds = %4, %17
  %.sroa.0.0.copyload.i4.i = phi i64 [ %.sroa.0.0.copyload.i4.pre.i, %17 ], [ %.sroa.0.0.copyload.i.i, %4 ]
  %18 = tail call noundef zeroext i1 @_ZN5clang4Sema19RequireCompleteTypeENS_14SourceLocationENS_8QualTypeENS0_16CompleteTypeKindERNS0_13TypeDiagnoserE(ptr noundef nonnull align 8 dereferenceable(17560) %0, i32 %5, i64 %.sroa.0.0.copyload.i4.i, i32 noundef %2, ptr noundef nonnull align 8 dereferenceable(8) %3)
  ret i1 %18
}